target datalayout = "e-m:e-p270:32:32-p271:32:32-p272:64:64-i64:64-i128:128-f80:128-n8:16:32:64-S128"
target triple = "x86_64-pc-linux-gnu"

%"class.std::__shared_count" = type { ptr }
%"class.folly::FutureException" = type { %"class.std::logic_error" }
%"class.std::logic_error" = type { %"class.std::exception", %"struct.std::__cow_string" }
%"class.std::exception" = type { ptr }
%"struct.std::__cow_string" = type { %union.anon.16 }
%union.anon.16 = type { ptr }
%"class.folly::SemiFuture" = type { %"class.folly::futures::detail::FutureBase" }
%"class.folly::futures::detail::FutureBase" = type { ptr }
%"class.std::chrono::duration" = type { i64 }
%"class.std::shared_ptr.21" = type { %"class.std::__shared_ptr.22" }
%"class.std::__shared_ptr.22" = type { ptr, %"class.std::__shared_count" }
%"class.folly::FutureNoTimekeeper" = type { %"class.folly::FutureException" }

@_ZTVN5folly15FutureExceptionE = linkonce_odr unnamed_addr constant { [5 x ptr] } { [5 x ptr] [ptr null, ptr @_ZTIN5folly15FutureExceptionE, ptr @_ZNSt11logic_errorD2Ev, ptr @_ZN5folly15FutureExceptionD0Ev, ptr @_ZNKSt11logic_error4whatEv] }, comdat, align 8
@.str.9 = private unnamed_addr constant [1 x i8] zeroinitializer, align 1
@_ZTVN5folly18FutureNoTimekeeperE = linkonce_odr unnamed_addr constant { [5 x ptr] } { [5 x ptr] [ptr null, ptr @_ZTIN5folly18FutureNoTimekeeperE, ptr @_ZNSt11logic_errorD2Ev, ptr @_ZN5folly18FutureNoTimekeeperD0Ev, ptr @_ZNK5folly18FutureNoTimekeeper4whatEv] }, comdat, align 8

; Function Attrs: inlinehint mustprogress nounwind uwtable
define linkonce_odr void @_ZSt4swapIPN5folly10TimekeeperEENSt9enable_ifIXsr6__and_ISt6__not_ISt15__is_tuple_likeIT_EESt21is_move_constructibleIS6_ESt18is_move_assignableIS6_EEE5valueEvE4typeERS6_SF_(ptr noundef nonnull align 8 dereferenceable(8) %0, ptr noundef nonnull align 8 dereferenceable(8) %1) #5 comdat {
  %3 = alloca ptr, align 8
  %4 = alloca ptr, align 8
  %5 = alloca ptr, align 8
  store ptr %0, ptr %3, align 8, !tbaa !150
  store ptr %1, ptr %4, align 8, !tbaa !150
  call void @llvm.lifetime.start.p0(i64 8, ptr %5) #31
  %6 = load ptr, ptr %3, align 8, !tbaa !150
  %7 = load ptr, ptr %6, align 8, !tbaa !139
  store ptr %7, ptr %5, align 8, !tbaa !139
  %8 = load ptr, ptr %4, align 8, !tbaa !150
  %9 = load ptr, ptr %8, align 8, !tbaa !139
  %10 = load ptr, ptr %3, align 8, !tbaa !150
  store ptr %9, ptr %10, align 8, !tbaa !139
  %11 = load ptr, ptr %5, align 8, !tbaa !139
  %12 = load ptr, ptr %4, align 8, !tbaa !150
  store ptr %11, ptr %12, align 8, !tbaa !139
  call void @llvm.lifetime.end.p0(i64 8, ptr %5) #31
  ret void
}

; Function Attrs: mustprogress nounwind uwtable
define linkonce_odr void @_ZNSt14__shared_countILN9__gnu_cxx12_Lock_policyE2EE7_M_swapERS2_(ptr noundef nonnull align 8 dereferenceable(8) %0, ptr noundef nonnull align 8 dereferenceable(8) %1) #4 comdat align 2 {
  %3 = alloca ptr, align 8
  %4 = alloca ptr, align 8
  %5 = alloca ptr, align 8
  store ptr %0, ptr %3, align 8, !tbaa !32
  store ptr %1, ptr %4, align 8, !tbaa !32
  %6 = load ptr, ptr %3, align 8
  call void @llvm.lifetime.start.p0(i64 8, ptr %5) #31
  %7 = load ptr, ptr %4, align 8, !tbaa !32
  %8 = getelementptr inbounds nuw %"class.std::__shared_count", ptr %7, i32 0, i32 0
  %9 = load ptr, ptr %8, align 8, !tbaa !37
  store ptr %9, ptr %5, align 8, !tbaa !38
  %10 = getelementptr inbounds nuw %"class.std::__shared_count", ptr %6, i32 0, i32 0
  %11 = load ptr, ptr %10, align 8, !tbaa !37
  %12 = load ptr, ptr %4, align 8, !tbaa !32
  %13 = getelementptr inbounds nuw %"class.std::__shared_count", ptr %12, i32 0, i32 0
  store ptr %11, ptr %13, align 8, !tbaa !37
  %14 = load ptr, ptr %5, align 8, !tbaa !38
  %15 = getelementptr inbounds nuw %"class.std::__shared_count", ptr %6, i32 0, i32 0
  store ptr %14, ptr %15, align 8, !tbaa !37
  call void @llvm.lifetime.end.p0(i64 8, ptr %5) #31
  ret void
}

; Function Attrs: mustprogress nounwind uwtable
define linkonce_odr void @_ZNSt12__shared_ptrIN5folly10TimekeeperELN9__gnu_cxx12_Lock_policyE2EE4swapERS4_(ptr noundef nonnull align 8 dereferenceable(16) %0, ptr noundef nonnull align 8 dereferenceable(16) %1) #4 comdat align 2 {
  %3 = alloca ptr, align 8
  %4 = alloca ptr, align 8
  store ptr %0, ptr %3, align 8, !tbaa !144
  store ptr %1, ptr %4, align 8, !tbaa !144
  %5 = load ptr, ptr %3, align 8
  %6 = getelementptr inbounds nuw %"class.std::__shared_ptr.22", ptr %5, i32 0, i32 0
  %7 = load ptr, ptr %4, align 8, !tbaa !144
  %8 = getelementptr inbounds nuw %"class.std::__shared_ptr.22", ptr %7, i32 0, i32 0
  call void @_ZSt4swapIPN5folly10TimekeeperEENSt9enable_ifIXsr6__and_ISt6__not_ISt15__is_tuple_likeIT_EESt21is_move_constructibleIS6_ESt18is_move_assignableIS6_EEE5valueEvE4typeERS6_SF_(ptr noundef nonnull align 8 dereferenceable(8) %6, ptr noundef nonnull align 8 dereferenceable(8) %8) #31
  %9 = getelementptr inbounds nuw %"class.std::__shared_ptr.22", ptr %5, i32 0, i32 1
  %10 = load ptr, ptr %4, align 8, !tbaa !144
  %11 = getelementptr inbounds nuw %"class.std::__shared_ptr.22", ptr %10, i32 0, i32 1
  call void @_ZNSt14__shared_countILN9__gnu_cxx12_Lock_policyE2EE7_M_swapERS2_(ptr noundef nonnull align 8 dereferenceable(8) %9, ptr noundef nonnull align 8 dereferenceable(8) %11) #31
  ret void
}

; Function Attrs: mustprogress nounwind uwtable
define linkonce_odr void @_ZNSt12__shared_ptrIN5folly10TimekeeperELN9__gnu_cxx12_Lock_policyE2EEC2EOS4_(ptr noundef nonnull align 8 dereferenceable(16) %0, ptr noundef nonnull align 8 dereferenceable(16) %1) unnamed_addr #4 comdat align 2 {
  %3 = alloca ptr, align 8
  %4 = alloca ptr, align 8
  store ptr %0, ptr %3, align 8, !tbaa !144
  store ptr %1, ptr %4, align 8, !tbaa !144
  %5 = load ptr, ptr %3, align 8
  %6 = getelementptr inbounds nuw %"class.std::__shared_ptr.22", ptr %5, i32 0, i32 0
  %7 = load ptr, ptr %4, align 8, !tbaa !144
  %8 = getelementptr inbounds nuw %"class.std::__shared_ptr.22", ptr %7, i32 0, i32 0
  %9 = load ptr, ptr %8, align 8, !tbaa !146
  store ptr %9, ptr %6, align 8, !tbaa !146
  %10 = getelementptr inbounds nuw %"class.std::__shared_ptr.22", ptr %5, i32 0, i32 1
  call void @_ZNSt14__shared_countILN9__gnu_cxx12_Lock_policyE2EEC2Ev(ptr noundef nonnull align 8 dereferenceable(8) %10) #31
  %11 = getelementptr inbounds nuw %"class.std::__shared_ptr.22", ptr %5, i32 0, i32 1
  %12 = load ptr, ptr %4, align 8, !tbaa !144
  %13 = getelementptr inbounds nuw %"class.std::__shared_ptr.22", ptr %12, i32 0, i32 1
  call void @_ZNSt14__shared_countILN9__gnu_cxx12_Lock_policyE2EE7_M_swapERS2_(ptr noundef nonnull align 8 dereferenceable(8) %11, ptr noundef nonnull align 8 dereferenceable(8) %13) #31
  %14 = load ptr, ptr %4, align 8, !tbaa !144
  %15 = getelementptr inbounds nuw %"class.std::__shared_ptr.22", ptr %14, i32 0, i32 0
  store ptr null, ptr %15, align 8, !tbaa !146
  ret void
}

; Function Attrs: mustprogress nounwind uwtable
define linkonce_odr void @_ZNSt14__shared_countILN9__gnu_cxx12_Lock_policyE2EEC2Ev(ptr noundef nonnull align 8 dereferenceable(8) %0) unnamed_addr #4 comdat align 2 {
  %2 = alloca ptr, align 8
  store ptr %0, ptr %2, align 8, !tbaa !32
  %3 = load ptr, ptr %2, align 8
  %4 = getelementptr inbounds nuw %"class.std::__shared_count", ptr %3, i32 0, i32 0
  store ptr null, ptr %4, align 8, !tbaa !37
  ret void
}

; Function Attrs: mustprogress uwtable
define linkonce_odr void @_ZN5folly15FutureExceptionC2Ev(ptr noundef nonnull align 8 dereferenceable(16) %0) unnamed_addr #2 comdat align 2 {
  %2 = alloca ptr, align 8
  store ptr %0, ptr %2, align 8, !tbaa !125
  %3 = load ptr, ptr %2, align 8
  call void @_ZNSt11logic_errorC2EPKc(ptr noundef nonnull align 8 dereferenceable(16) %3, ptr noundef @.str.9)
  store ptr getelementptr inbounds inrange(-16, 24) ({ [5 x ptr] }, ptr @_ZTVN5folly15FutureExceptionE, i32 0, i32 0, i32 2), ptr %3, align 8, !tbaa !58
  ret void
}

; Function Attrs: mustprogress nounwind uwtable
define linkonce_odr noundef nonnull align 8 dereferenceable(16) ptr @_ZNSt12__shared_ptrIN5folly10TimekeeperELN9__gnu_cxx12_Lock_policyE2EEaSEOS4_(ptr noundef nonnull align 8 dereferenceable(16) %0, ptr noundef nonnull align 8 dereferenceable(16) %1) #4 comdat align 2 {
  %3 = alloca ptr, align 8
  %4 = alloca ptr, align 8
  %5 = alloca %"class.std::__shared_ptr.22", align 8
  store ptr %0, ptr %3, align 8, !tbaa !144
  store ptr %1, ptr %4, align 8, !tbaa !144
  %6 = load ptr, ptr %3, align 8
  call void @llvm.lifetime.start.p0(i64 16, ptr %5) #31
  %7 = load ptr, ptr %4, align 8, !tbaa !144
  call void @_ZNSt12__shared_ptrIN5folly10TimekeeperELN9__gnu_cxx12_Lock_policyE2EEC2EOS4_(ptr noundef nonnull align 8 dereferenceable(16) %5, ptr noundef nonnull align 8 dereferenceable(16) %7) #31
  call void @_ZNSt12__shared_ptrIN5folly10TimekeeperELN9__gnu_cxx12_Lock_policyE2EE4swapERS4_(ptr noundef nonnull align 8 dereferenceable(16) %5, ptr noundef nonnull align 8 dereferenceable(16) %6) #31
  call void @_ZNSt12__shared_ptrIN5folly10TimekeeperELN9__gnu_cxx12_Lock_policyE2EED2Ev(ptr noundef nonnull align 8 dereferenceable(16) %5) #31
  call void @llvm.lifetime.end.p0(i64 16, ptr %5) #31
  ret ptr %6
}

; Function Attrs: mustprogress nounwind uwtable
define linkonce_odr void @_ZNSt12__shared_ptrIN5folly10TimekeeperELN9__gnu_cxx12_Lock_policyE2EEC2Ev(ptr noundef nonnull align 8 dereferenceable(16) %0) unnamed_addr #4 comdat align 2 {
  %2 = alloca ptr, align 8
  store ptr %0, ptr %2, align 8, !tbaa !144
  %3 = load ptr, ptr %2, align 8
  %4 = getelementptr inbounds nuw %"class.std::__shared_ptr.22", ptr %3, i32 0, i32 0
  store ptr null, ptr %4, align 8, !tbaa !146
  %5 = getelementptr inbounds nuw %"class.std::__shared_ptr.22", ptr %3, i32 0, i32 1
  call void @_ZNSt14__shared_countILN9__gnu_cxx12_Lock_policyE2EEC2Ev(ptr noundef nonnull align 8 dereferenceable(8) %5) #31
  ret void
}

; Function Attrs: mustprogress uwtable
define linkonce_odr void @_ZN5folly18FutureNoTimekeeperC2Ev(ptr noundef nonnull align 8 dereferenceable(16) %0) unnamed_addr #2 comdat align 2 {
  %2 = alloca ptr, align 8
  store ptr %0, ptr %2, align 8, !tbaa !148
  %3 = load ptr, ptr %2, align 8
  call void @_ZN5folly15FutureExceptionC2Ev(ptr noundef nonnull align 8 dereferenceable(16) %3)
  store ptr getelementptr inbounds inrange(-16, 24) ({ [5 x ptr] }, ptr @_ZTVN5folly18FutureNoTimekeeperE, i32 0, i32 0, i32 2), ptr %3, align 8, !tbaa !58
  ret void
}

; Function Attrs: mustprogress nounwind uwtable
define linkonce_odr noundef ptr @_ZNKSt12__shared_ptrIN5folly10TimekeeperELN9__gnu_cxx12_Lock_policyE2EE3getEv(ptr noundef nonnull align 8 dereferenceable(16) %0) #4 comdat align 2 {
  %2 = alloca ptr, align 8
  store ptr %0, ptr %2, align 8, !tbaa !144
  %3 = load ptr, ptr %2, align 8
  %4 = getelementptr inbounds nuw %"class.std::__shared_ptr.22", ptr %3, i32 0, i32 0
  %5 = load ptr, ptr %4, align 8, !tbaa !146
  ret ptr %5
}

; Function Attrs: mustprogress nounwind uwtable
define linkonce_odr noundef nonnull align 8 dereferenceable(16) ptr @_ZNSt10shared_ptrIN5folly10TimekeeperEEaSEOS2_(ptr noundef nonnull align 8 dereferenceable(16) %0, ptr noundef nonnull align 8 dereferenceable(16) %1) #4 comdat align 2 {
  %3 = alloca ptr, align 8
  %4 = alloca ptr, align 8
  store ptr %0, ptr %3, align 8, !tbaa !142
  store ptr %1, ptr %4, align 8, !tbaa !142
  %5 = load ptr, ptr %3, align 8
  %6 = load ptr, ptr %4, align 8, !tbaa !142
  %7 = call noundef nonnull align 8 dereferenceable(16) ptr @_ZNSt12__shared_ptrIN5folly10TimekeeperELN9__gnu_cxx12_Lock_policyE2EEaSEOS4_(ptr noundef nonnull align 8 dereferenceable(16) %5, ptr noundef nonnull align 8 dereferenceable(16) %6) #31
  ret ptr %5
}

; Function Attrs: mustprogress uwtable
define void @_ZN5folly6detail22getTimekeeperSingletonEv(ptr dead_on_unwind noalias writable sret(%"class.std::shared_ptr.21") align 8 %0) #2 {
  %2 = alloca ptr, align 8
  store ptr %0, ptr %2, align 8
  call void @_ZN5folly9SingletonINS_10TimekeeperENS_6detail22TimekeeperSingletonTagENS2_10DefaultTagEE7try_getEv(ptr dead_on_unwind writable sret(%"class.std::shared_ptr.21") align 8 %0)
  ret void
}

; Function Attrs: mustprogress nounwind uwtable
define linkonce_odr void @_ZNSt10shared_ptrIN5folly10TimekeeperEEC2Ev(ptr noundef nonnull align 8 dereferenceable(16) %0) unnamed_addr #4 comdat align 2 {
  %2 = alloca ptr, align 8
  store ptr %0, ptr %2, align 8, !tbaa !142
  %3 = load ptr, ptr %2, align 8
  call void @_ZNSt12__shared_ptrIN5folly10TimekeeperELN9__gnu_cxx12_Lock_policyE2EEC2Ev(ptr noundef nonnull align 8 dereferenceable(16) %3) #31
  ret void
}

; Function Attrs: mustprogress uwtable
define void @_ZN5folly7futures5sleepENSt6chrono8durationIlSt5ratioILl1ELl1000000EEEEPNS_10TimekeeperE(ptr dead_on_unwind noalias writable sret(%"class.folly::SemiFuture") align 8 %0, i64 %1, ptr noundef %2) #2 personality ptr @__gxx_personality_v0 {
  %4 = alloca ptr, align 8
  %5 = alloca %"class.std::chrono::duration", align 8
  %6 = alloca ptr, align 8
  %7 = alloca %"class.std::shared_ptr.21", align 8
  %8 = alloca %"class.std::shared_ptr.21", align 8
  %9 = alloca ptr, align 8
  %10 = alloca i32, align 4
  %11 = alloca %"class.folly::FutureNoTimekeeper", align 8
  %12 = alloca i32, align 4
  %13 = alloca %"class.std::chrono::duration", align 8
  store ptr %0, ptr %4, align 8
  %14 = getelementptr inbounds nuw %"class.std::chrono::duration", ptr %5, i32 0, i32 0
  store i64 %1, ptr %14, align 8
  store ptr %2, ptr %6, align 8, !tbaa !139
  call void @llvm.lifetime.start.p0(i64 16, ptr %7) #31
  call void @_ZNSt10shared_ptrIN5folly10TimekeeperEEC2Ev(ptr noundef nonnull align 8 dereferenceable(16) %7) #31
  %15 = load ptr, ptr %6, align 8, !tbaa !139
  %16 = icmp ne ptr %15, null
  %17 = xor i1 %16, true
  %18 = zext i1 %17 to i64
  %19 = call i64 @llvm.expect.i64(i64 %18, i64 1)
  %20 = icmp ne i64 %19, 0
  br i1 %20, label %21, label %29

21:                                               ; preds = %3
  call void @llvm.lifetime.start.p0(i64 16, ptr %8) #31
  invoke void @_ZN5folly6detail22getTimekeeperSingletonEv(ptr dead_on_unwind writable sret(%"class.std::shared_ptr.21") align 8 %8)
          to label %22 unwind label %25

22:                                               ; preds = %21
  %23 = call noundef nonnull align 8 dereferenceable(16) ptr @_ZNSt10shared_ptrIN5folly10TimekeeperEEaSEOS2_(ptr noundef nonnull align 8 dereferenceable(16) %7, ptr noundef nonnull align 8 dereferenceable(16) %8) #31
  call void @_ZNSt12__shared_ptrIN5folly10TimekeeperELN9__gnu_cxx12_Lock_policyE2EED2Ev(ptr noundef nonnull align 8 dereferenceable(16) %8) #31
  call void @llvm.lifetime.end.p0(i64 16, ptr %8) #31
  %24 = call noundef ptr @_ZNKSt12__shared_ptrIN5folly10TimekeeperELN9__gnu_cxx12_Lock_policyE2EE3getEv(ptr noundef nonnull align 8 dereferenceable(16) %7) #31
  store ptr %24, ptr %6, align 8, !tbaa !139
  br label %29

25:                                               ; preds = %21
  %26 = landingpad { ptr, i32 }
          cleanup
  %27 = extractvalue { ptr, i32 } %26, 0
  store ptr %27, ptr %9, align 8
  %28 = extractvalue { ptr, i32 } %26, 1
  store i32 %28, ptr %10, align 4
  call void @llvm.lifetime.end.p0(i64 16, ptr %8) #31
  br label %61

29:                                               ; preds = %22, %3
  %30 = load ptr, ptr %6, align 8, !tbaa !139
  %31 = icmp ne ptr %30, null
  %32 = xor i1 %31, true
  %33 = zext i1 %32 to i64
  %34 = call i64 @llvm.expect.i64(i64 %33, i64 0)
  %35 = icmp ne i64 %34, 0
  br i1 %35, label %36, label %48

36:                                               ; preds = %29
  call void @llvm.lifetime.start.p0(i64 16, ptr %11) #31
  call void @llvm.memset.p0.i64(ptr align 8 %11, i8 0, i64 16, i1 false)
  invoke void @_ZN5folly18FutureNoTimekeeperC2Ev(ptr noundef nonnull align 8 dereferenceable(16) %11)
          to label %37 unwind label %39

37:                                               ; preds = %36
  invoke void @_ZN5folly14makeSemiFutureINS_4UnitENS_18FutureNoTimekeeperEEENSt9enable_ifIXsr3std10is_base_ofISt9exceptionT0_EE5valueENS_10SemiFutureIT_EEE4typeERKS5_(ptr dead_on_unwind writable sret(%"class.folly::SemiFuture") align 8 %0, ptr noundef nonnull align 8 dereferenceable(16) %11)
          to label %38 unwind label %43

38:                                               ; preds = %37
  call void @_ZNSt11logic_errorD2Ev(ptr noundef nonnull align 8 dereferenceable(16) %11) #31
  call void @llvm.lifetime.end.p0(i64 16, ptr %11) #31
  store i32 1, ptr %12, align 4
  br label %60

39:                                               ; preds = %36
  %40 = landingpad { ptr, i32 }
          cleanup
  %41 = extractvalue { ptr, i32 } %40, 0
  store ptr %41, ptr %9, align 8
  %42 = extractvalue { ptr, i32 } %40, 1
  store i32 %42, ptr %10, align 4
  br label %47

43:                                               ; preds = %37
  %44 = landingpad { ptr, i32 }
          cleanup
  %45 = extractvalue { ptr, i32 } %44, 0
  store ptr %45, ptr %9, align 8
  %46 = extractvalue { ptr, i32 } %44, 1
  store i32 %46, ptr %10, align 4
  call void @_ZNSt11logic_errorD2Ev(ptr noundef nonnull align 8 dereferenceable(16) %11) #31
  br label %47

47:                                               ; preds = %43, %39
  call void @llvm.lifetime.end.p0(i64 16, ptr %11) #31
  br label %61

48:                                               ; preds = %29
  %49 = load ptr, ptr %6, align 8, !tbaa !139
  call void @llvm.memcpy.p0.p0.i64(ptr align 8 %13, ptr align 8 %5, i64 8, i1 false), !tbaa.struct !141
  %50 = getelementptr inbounds nuw %"class.std::chrono::duration", ptr %13, i32 0, i32 0
  %51 = load i64, ptr %50, align 8
  %52 = load ptr, ptr %49, align 8, !tbaa !58
  %53 = getelementptr inbounds ptr, ptr %52, i64 2
  %54 = load ptr, ptr %53, align 8
  invoke void %54(ptr dead_on_unwind writable sret(%"class.folly::SemiFuture") align 8 %0, ptr noundef nonnull align 8 dereferenceable(8) %49, i64 %51)
          to label %55 unwind label %56

55:                                               ; preds = %48
  store i32 1, ptr %12, align 4
  br label %60

56:                                               ; preds = %48
  %57 = landingpad { ptr, i32 }
          cleanup
  %58 = extractvalue { ptr, i32 } %57, 0
  store ptr %58, ptr %9, align 8
  %59 = extractvalue { ptr, i32 } %57, 1
  store i32 %59, ptr %10, align 4
  br label %61

60:                                               ; preds = %55, %38
  call void @_ZNSt12__shared_ptrIN5folly10TimekeeperELN9__gnu_cxx12_Lock_policyE2EED2Ev(ptr noundef nonnull align 8 dereferenceable(16) %7) #31
  call void @llvm.lifetime.end.p0(i64 16, ptr %7) #31
  ret void

61:                                               ; preds = %56, %47, %25
  call void @_ZNSt12__shared_ptrIN5folly10TimekeeperELN9__gnu_cxx12_Lock_policyE2EED2Ev(ptr noundef nonnull align 8 dereferenceable(16) %7) #31
  call void @llvm.lifetime.end.p0(i64 16, ptr %7) #31
  br label %62

62:                                               ; preds = %61
  %63 = load ptr, ptr %9, align 8
  %64 = load i32, ptr %10, align 4
  %65 = insertvalue { ptr, i32 } poison, ptr %63, 0
  %66 = insertvalue { ptr, i32 } %65, i32 %64, 1
  resume { ptr, i32 } %66
}