; Function Attrs: mustprogress uwtable
define void @_ZN5folly7futures5sleepENSt6chrono8durationIlSt5ratioILl1ELl1000000EEEEPNS_10TimekeeperE(ptr dead_on_unwind noalias writable sret(%"class.folly::SemiFuture") align 8 %0, i64 %1, ptr noundef %2) local_unnamed_addr #1 personality ptr @__gxx_personality_v0 {
  %4 = alloca %"class.std::shared_ptr.21", align 8
  %5 = alloca %"class.std::shared_ptr.21", align 8
  %6 = alloca %"class.folly::FutureNoTimekeeper", align 8
  call void @llvm.lifetime.start.p0(i64 16, ptr nonnull %4) #23
  call void @llvm.memset.p0.i64(ptr noundef nonnull align 8 dereferenceable(16) %4, i8 0, i64 16, i1 false)
  %.not = icmp eq ptr %2, null
  br i1 %.not, label %7, label %.thread, !prof !68

7:                                                ; preds = %3
  call void @llvm.lifetime.start.p0(i64 16, ptr nonnull %5) #23
  invoke void @_ZN5folly9SingletonINS_10TimekeeperENS_6detail22TimekeeperSingletonTagENS2_10DefaultTagEE7try_getEv(ptr dead_on_unwind nonnull writable sret(%"class.std::shared_ptr.21") align 8 %5)
          to label %10 unwind label %8

8:                                                ; preds = %7
  %9 = landingpad { ptr, i32 }
          cleanup
  call void @llvm.lifetime.end.p0(i64 16, ptr nonnull %5) #23
  br label %52

10:                                               ; preds = %7
  %11 = load ptr, ptr %5, align 8, !tbaa !69
  %12 = getelementptr inbounds nuw i8, ptr %5, i64 8
  %13 = load ptr, ptr %12, align 8, !tbaa !16
  store ptr %11, ptr %4, align 8, !tbaa !72
  %14 = getelementptr inbounds nuw i8, ptr %4, i64 8
  store ptr %13, ptr %14, align 8, !tbaa !16
  call void @llvm.lifetime.end.p0(i64 16, ptr nonnull %5) #23
  %.not8 = icmp eq ptr %11, null
  br i1 %.not8, label %15, label %.thread, !prof !73

15:                                               ; preds = %10
  call void @llvm.lifetime.start.p0(i64 16, ptr nonnull %6) #23
  call void @llvm.memset.p0.i64(ptr noundef nonnull align 8 dereferenceable(16) %6, i8 0, i64 16, i1 false)
  invoke void @_ZNSt11logic_errorC2EPKc(ptr noundef nonnull align 8 dereferenceable(16) %6, ptr noundef nonnull @.str.9)
          to label %16 unwind label %18

16:                                               ; preds = %15
  store ptr getelementptr inbounds nuw inrange(-16, 24) (i8, ptr @_ZTVN5folly18FutureNoTimekeeperE, i64 16), ptr %6, align 8, !tbaa !29
  invoke void @_ZN5folly14makeSemiFutureINS_4UnitENS_18FutureNoTimekeeperEEENSt9enable_ifIXsr3std10is_base_ofISt9exceptionT0_EE5valueENS_10SemiFutureIT_EEE4typeERKS5_(ptr dead_on_unwind writable sret(%"class.folly::SemiFuture") align 8 %0, ptr noundef nonnull align 8 dereferenceable(16) %6)
          to label %17 unwind label %20

17:                                               ; preds = %16
  call void @_ZNSt11logic_errorD2Ev(ptr noundef nonnull align 8 dereferenceable(16) %6) #23
  call void @llvm.lifetime.end.p0(i64 16, ptr nonnull %6) #23
  br label %29

18:                                               ; preds = %15
  %19 = landingpad { ptr, i32 }
          cleanup
  br label %22

20:                                               ; preds = %16
  %21 = landingpad { ptr, i32 }
          cleanup
  call void @_ZNSt11logic_errorD2Ev(ptr noundef nonnull align 8 dereferenceable(16) %6) #23
  br label %22

22:                                               ; preds = %20, %18
  %.pn = phi { ptr, i32 } [ %21, %20 ], [ %19, %18 ]
  call void @llvm.lifetime.end.p0(i64 16, ptr nonnull %6) #23
  br label %52

.thread:                                          ; preds = %3, %10
  %23 = phi ptr [ %13, %10 ], [ null, %3 ]
  %.018 = phi ptr [ %11, %10 ], [ %2, %3 ]
  %24 = load ptr, ptr %.018, align 8, !tbaa !29
  %25 = getelementptr inbounds nuw i8, ptr %24, i64 16
  %26 = load ptr, ptr %25, align 8
  invoke void %26(ptr dead_on_unwind writable sret(%"class.folly::SemiFuture") align 8 %0, ptr noundef nonnull align 8 dereferenceable(8) %.018, i64 %1)
          to label %29 unwind label %27

27:                                               ; preds = %.thread
  %28 = landingpad { ptr, i32 }
          cleanup
  br label %52

29:                                               ; preds = %.thread, %17
  %30 = phi ptr [ %23, %.thread ], [ %13, %17 ]
  %.not.i.i11 = icmp eq ptr %30, null
  br i1 %.not.i.i11, label %_ZNSt12__shared_ptrIN5folly10TimekeeperELN9__gnu_cxx12_Lock_policyE2EED2Ev.exit15, label %31

31:                                               ; preds = %29
  %32 = getelementptr inbounds nuw i8, ptr %30, i64 8
  %33 = load atomic i64, ptr %32 acquire, align 8
  %34 = icmp eq i64 %33, 4294967297
  %35 = trunc i64 %33 to i32
  br i1 %34, label %36, label %44

36:                                               ; preds = %31
  store i32 0, ptr %32, align 8, !tbaa !25
  %37 = getelementptr inbounds nuw i8, ptr %30, i64 12
  store i32 0, ptr %37, align 4, !tbaa !28
  %38 = load ptr, ptr %30, align 8, !tbaa !29
  %39 = getelementptr inbounds nuw i8, ptr %38, i64 16
  %40 = load ptr, ptr %39, align 8
  call void %40(ptr noundef nonnull align 8 dereferenceable(16) %30) #23
  %41 = load ptr, ptr %30, align 8, !tbaa !29
  %42 = getelementptr inbounds nuw i8, ptr %41, i64 24
  %43 = load ptr, ptr %42, align 8
  call void %43(ptr noundef nonnull align 8 dereferenceable(16) %30) #23
  br label %_ZNSt12__shared_ptrIN5folly10TimekeeperELN9__gnu_cxx12_Lock_policyE2EED2Ev.exit15

44:                                               ; preds = %31
  %45 = load i8, ptr @__libc_single_threaded, align 1, !tbaa !31
  %.not.i.i.i12 = icmp eq i8 %45, 0
  br i1 %.not.i.i.i12, label %48, label %46

46:                                               ; preds = %44
  %47 = add nsw i32 %35, -1
  store i32 %47, ptr %32, align 4, !tbaa !32
  br label %_ZN9__gnu_cxx27__exchange_and_add_dispatchEPii.exit.i.i.i13

48:                                               ; preds = %44
  %49 = atomicrmw volatile add ptr %32, i32 -1 acq_rel, align 4
  br label %_ZN9__gnu_cxx27__exchange_and_add_dispatchEPii.exit.i.i.i13

_ZN9__gnu_cxx27__exchange_and_add_dispatchEPii.exit.i.i.i13: ; preds = %48, %46
  %.0.i.i.i.i14 = phi i32 [ %35, %46 ], [ %49, %48 ]
  %50 = icmp eq i32 %.0.i.i.i.i14, 1
  br i1 %50, label %51, label %_ZNSt12__shared_ptrIN5folly10TimekeeperELN9__gnu_cxx12_Lock_policyE2EED2Ev.exit15, !prof !33

51:                                               ; preds = %_ZN9__gnu_cxx27__exchange_and_add_dispatchEPii.exit.i.i.i13
  call void @_ZNSt16_Sp_counted_baseILN9__gnu_cxx12_Lock_policyE2EE24_M_release_last_use_coldEv(ptr noundef nonnull align 8 dereferenceable(16) %30) #23
  br label %_ZNSt12__shared_ptrIN5folly10TimekeeperELN9__gnu_cxx12_Lock_policyE2EED2Ev.exit15

_ZNSt12__shared_ptrIN5folly10TimekeeperELN9__gnu_cxx12_Lock_policyE2EED2Ev.exit15: ; preds = %29, %36, %_ZN9__gnu_cxx27__exchange_and_add_dispatchEPii.exit.i.i.i13, %51
  call void @llvm.lifetime.end.p0(i64 16, ptr nonnull %4) #23
  ret void

52:                                               ; preds = %27, %22, %8
  %.pn.pn = phi { ptr, i32 } [ %.pn, %22 ], [ %28, %27 ], [ %9, %8 ]
  call void @_ZNSt12__shared_ptrIN5folly10TimekeeperELN9__gnu_cxx12_Lock_policyE2EED2Ev(ptr noundef nonnull align 8 dereferenceable(16) %4) #23
  call void @llvm.lifetime.end.p0(i64 16, ptr nonnull %4) #23
  resume { ptr, i32 } %.pn.pn
}